; Function Attrs: mustprogress uwtable
define noundef zeroext i1 @_ZNK8QuantLib6Norway4Impl13isBusinessDayERKNS_4DateE(ptr noundef nonnull align 8 dereferenceable(104) %this, ptr noundef nonnull align 8 dereferenceable(8) %date) unnamed_addr #0 align 2 {
entry:
  %0 = load i64, ptr %date, align 8, !tbaa !23
  %rem.i = srem i64 %0, 7
  %conv.i = trunc nsw i64 %rem.i to i32
  %cmp.i = icmp eq i64 %rem.i, 0
  %cond.i = select i1 %cmp.i, i32 7, i32 %conv.i
  %call.i.i = tail call noundef i32 @_ZNK8QuantLib4Date4yearEv(ptr noundef nonnull align 8 dereferenceable(8) %date)
  %call2.i.i = tail call noundef i64 @_ZN8QuantLib4Date10yearOffsetEi(i32 noundef %call.i.i)
  %sub.i.i = sub nsw i64 %0, %call2.i.i
  %conv.i.i = trunc i64 %sub.i.i to i32
  %call2.i = tail call noundef i32 @_ZNK8QuantLib4Date5monthEv(ptr noundef nonnull align 8 dereferenceable(8) %date)
  %call3.i = tail call noundef i32 @_ZNK8QuantLib4Date4yearEv(ptr noundef nonnull align 8 dereferenceable(8) %date)
  %call4.i = tail call noundef zeroext i1 @_ZN8QuantLib4Date6isLeapEi(i32 noundef %call3.i)
  %call5.i = tail call noundef i32 @_ZN8QuantLib4Date11monthOffsetENS_5MonthEb(i32 noundef %call2.i, i1 noundef zeroext %call4.i)
  %sub.i = sub nsw i32 %conv.i.i, %call5.i
  %1 = load i64, ptr %date, align 8, !tbaa !23
  %call.i = tail call noundef i32 @_ZNK8QuantLib4Date4yearEv(ptr noundef nonnull align 8 dereferenceable(8) %date)
  %call2.i38 = tail call noundef i64 @_ZN8QuantLib4Date10yearOffsetEi(i32 noundef %call.i)
  %sub.i39 = sub nsw i64 %1, %call2.i38
  %conv.i40 = trunc i64 %sub.i39 to i32
  %call4 = tail call noundef i32 @_ZNK8QuantLib4Date5monthEv(ptr noundef nonnull align 8 dereferenceable(8) %date)
  %call5 = tail call noundef i32 @_ZNK8QuantLib4Date4yearEv(ptr noundef nonnull align 8 dereferenceable(8) %date)
  %call6 = tail call noundef i32 @_ZN8QuantLib8Calendar11WesternImpl12easterMondayEi(i32 noundef %call5)
  %call7 = tail call noundef zeroext i1 @_ZNK8QuantLib8Calendar11WesternImpl9isWeekendENS_7WeekdayE(ptr noundef nonnull align 8 dereferenceable(104) %this, i32 noundef %cond.i)
  %sub = add nsw i32 %call6, -4
  %cmp = icmp eq i32 %sub, %conv.i40
  %or.cond30 = select i1 %call7, i1 true, i1 %cmp
  %sub9 = add nsw i32 %call6, -3
  %cmp10 = icmp eq i32 %sub9, %conv.i40
  %or.cond31 = select i1 %or.cond30, i1 true, i1 %cmp10
  %cmp12 = icmp eq i32 %call6, %conv.i40
  %or.cond32 = or i1 %cmp12, %or.cond31
  %add = add nsw i32 %call6, 38
  %cmp14 = icmp eq i32 %add, %conv.i40
  %or.cond33 = select i1 %or.cond32, i1 true, i1 %cmp14
  %add16 = add nsw i32 %call6, 49
  %cmp17 = icmp eq i32 %add16, %conv.i40
  %or.cond34 = select i1 %or.cond33, i1 true, i1 %cmp17
  br i1 %or.cond34, label %cleanup, label %lor.lhs.false18

lor.lhs.false18:                                  ; preds = %entry
  %cmp19 = icmp eq i32 %sub.i, 1
  %cmp20 = icmp eq i32 %call4, 1
  %or.cond = and i1 %cmp19, %cmp20
  br i1 %or.cond, label %cleanup, label %lor.lhs.false21

lor.lhs.false21:                                  ; preds = %lor.lhs.false18
  %cmp24 = icmp eq i32 %call4, 5
  %cmp26 = icmp eq i32 %sub.i, 17
  %or.cond141 = or i1 %cmp19, %cmp26
  %or.cond35 = and i1 %or.cond141, %cmp24
  br i1 %or.cond35, label %cleanup, label %lor.lhs.false29

lor.lhs.false29:                                  ; preds = %lor.lhs.false21
  %cmp30 = icmp ne i32 %sub.i, 24
  %cmp32 = icmp ne i32 %call4, 12
  %cmp34 = icmp slt i32 %call5, 2002
  %.not46 = or i1 %cmp30, %cmp34
  %2 = add i32 %sub.i, -27
  %3 = icmp ult i32 %2, -2
  %or.cond3643.not45 = and i1 %3, %.not46
  %or.cond37.not = or i1 %cmp32, %or.cond3643.not45
  br label %cleanup

cleanup:                                          ; preds = %lor.lhs.false29, %entry, %lor.lhs.false18, %lor.lhs.false21
  %retval.0 = phi i1 [ false, %lor.lhs.false21 ], [ false, %lor.lhs.false18 ], [ false, %entry ], [ %or.cond37.not, %lor.lhs.false29 ]
  ret i1 %retval.0
}